; Function Attrs: nounwind uwtable
define internal range(i32 0, 2) i32 @match_partial_url(ptr noundef %0, ptr noundef readonly captures(none) %1) #3 {
  %3 = alloca %struct.credential, align 8
  call void @llvm.lifetime.start.p0(i64 200, ptr nonnull %3) #19
  call void @llvm.memcpy.p0.p0.i64(ptr noundef nonnull align 8 dereferenceable(200) %3, ptr noundef nonnull align 8 dereferenceable(200) @__const.match_partial_url.want, i64 200, i1 false)
  %4 = call fastcc range(i32 -1, 1) i32 @credential_from_url_1(ptr noundef nonnull %3, ptr noundef %0, i32 noundef 1, i32 noundef 0)
  %5 = icmp slt i32 %4, 0
  br i1 %5, label %6, label %10

6:                                                ; preds = %2
  %7 = load i32, ptr @git_gettext_enabled, align 4, !tbaa !28
  %.not4.i = icmp eq i32 %7, 0
  br i1 %.not4.i, label %_.exit, label %8

8:                                                ; preds = %6
  %9 = call ptr @dcgettext(ptr noundef null, ptr noundef nonnull @.str.40, i32 noundef 5) #19
  br label %_.exit

_.exit:                                           ; preds = %6, %8
  %.0.i = phi ptr [ %9, %8 ], [ @.str.40, %6 ]
  call void (ptr, ...) @warning(ptr noundef %.0.i, ptr noundef %0) #19
  br label %12

10:                                               ; preds = %2
  %11 = call i32 @credential_match(ptr noundef nonnull %3, ptr noundef %1, i32 noundef 0)
  br label %12

12:                                               ; preds = %10, %_.exit
  %.0 = phi i32 [ 0, %_.exit ], [ %11, %10 ]
  call void @credential_clear(ptr noundef nonnull %3)
  call void @llvm.lifetime.end.p0(i64 200, ptr nonnull %3) #19
  ret i32 %.0
}